target datalayout = "e-m:e-p270:32:32-p271:32:32-p272:64:64-i64:64-i128:128-f80:128-n8:16:32:64-S128"
target triple = "x86_64-pc-linux-gnu"

%struct.Matrix = type { float, float, float, float, float, float, float, float, float, float, float, float, float, float, float, float }

; Function Attrs: nounwind uwtable
define float @MatrixDeterminant(ptr noundef byval(%struct.Matrix) align 8 %0) #0 {
  %2 = alloca float, align 4
  %3 = alloca float, align 4
  %4 = alloca float, align 4
  %5 = alloca float, align 4
  %6 = alloca float, align 4
  %7 = alloca float, align 4
  %8 = alloca float, align 4
  %9 = alloca float, align 4
  %10 = alloca float, align 4
  %11 = alloca float, align 4
  %12 = alloca float, align 4
  %13 = alloca float, align 4
  %14 = alloca float, align 4
  %15 = alloca float, align 4
  %16 = alloca float, align 4
  %17 = alloca float, align 4
  %18 = alloca float, align 4
  call void @llvm.lifetime.start.p0(i64 4, ptr %2) #16
  store float 0.000000e+00, ptr %2, align 4
  call void @llvm.lifetime.start.p0(i64 4, ptr %3) #16
  %19 = getelementptr inbounds nuw %struct.Matrix, ptr %0, i32 0, i32 0
  %20 = load float, ptr %19, align 8
  store float %20, ptr %3, align 4
  call void @llvm.lifetime.start.p0(i64 4, ptr %4) #16
  %21 = getelementptr inbounds nuw %struct.Matrix, ptr %0, i32 0, i32 4
  %22 = load float, ptr %21, align 8
  store float %22, ptr %4, align 4
  call void @llvm.lifetime.start.p0(i64 4, ptr %5) #16
  %23 = getelementptr inbounds nuw %struct.Matrix, ptr %0, i32 0, i32 8
  %24 = load float, ptr %23, align 8
  store float %24, ptr %5, align 4
  call void @llvm.lifetime.start.p0(i64 4, ptr %6) #16
  %25 = getelementptr inbounds nuw %struct.Matrix, ptr %0, i32 0, i32 12
  %26 = load float, ptr %25, align 8
  store float %26, ptr %6, align 4
  call void @llvm.lifetime.start.p0(i64 4, ptr %7) #16
  %27 = getelementptr inbounds nuw %struct.Matrix, ptr %0, i32 0, i32 1
  %28 = load float, ptr %27, align 4
  store float %28, ptr %7, align 4
  call void @llvm.lifetime.start.p0(i64 4, ptr %8) #16
  %29 = getelementptr inbounds nuw %struct.Matrix, ptr %0, i32 0, i32 5
  %30 = load float, ptr %29, align 4
  store float %30, ptr %8, align 4
  call void @llvm.lifetime.start.p0(i64 4, ptr %9) #16
  %31 = getelementptr inbounds nuw %struct.Matrix, ptr %0, i32 0, i32 9
  %32 = load float, ptr %31, align 4
  store float %32, ptr %9, align 4
  call void @llvm.lifetime.start.p0(i64 4, ptr %10) #16
  %33 = getelementptr inbounds nuw %struct.Matrix, ptr %0, i32 0, i32 13
  %34 = load float, ptr %33, align 4
  store float %34, ptr %10, align 4
  call void @llvm.lifetime.start.p0(i64 4, ptr %11) #16
  %35 = getelementptr inbounds nuw %struct.Matrix, ptr %0, i32 0, i32 2
  %36 = load float, ptr %35, align 8
  store float %36, ptr %11, align 4
  call void @llvm.lifetime.start.p0(i64 4, ptr %12) #16
  %37 = getelementptr inbounds nuw %struct.Matrix, ptr %0, i32 0, i32 6
  %38 = load float, ptr %37, align 8
  store float %38, ptr %12, align 4
  call void @llvm.lifetime.start.p0(i64 4, ptr %13) #16
  %39 = getelementptr inbounds nuw %struct.Matrix, ptr %0, i32 0, i32 10
  %40 = load float, ptr %39, align 8
  store float %40, ptr %13, align 4
  call void @llvm.lifetime.start.p0(i64 4, ptr %14) #16
  %41 = getelementptr inbounds nuw %struct.Matrix, ptr %0, i32 0, i32 14
  %42 = load float, ptr %41, align 8
  store float %42, ptr %14, align 4
  call void @llvm.lifetime.start.p0(i64 4, ptr %15) #16
  %43 = getelementptr inbounds nuw %struct.Matrix, ptr %0, i32 0, i32 3
  %44 = load float, ptr %43, align 4
  store float %44, ptr %15, align 4
  call void @llvm.lifetime.start.p0(i64 4, ptr %16) #16
  %45 = getelementptr inbounds nuw %struct.Matrix, ptr %0, i32 0, i32 7
  %46 = load float, ptr %45, align 4
  store float %46, ptr %16, align 4
  call void @llvm.lifetime.start.p0(i64 4, ptr %17) #16
  %47 = getelementptr inbounds nuw %struct.Matrix, ptr %0, i32 0, i32 11
  %48 = load float, ptr %47, align 4
  store float %48, ptr %17, align 4
  call void @llvm.lifetime.start.p0(i64 4, ptr %18) #16
  %49 = getelementptr inbounds nuw %struct.Matrix, ptr %0, i32 0, i32 15
  %50 = load float, ptr %49, align 4
  store float %50, ptr %18, align 4
  %51 = load float, ptr %15, align 4
  %52 = load float, ptr %12, align 4
  %53 = fmul float %51, %52
  %54 = load float, ptr %9, align 4
  %55 = fmul float %53, %54
  %56 = load float, ptr %6, align 4
  %57 = load float, ptr %11, align 4
  %58 = load float, ptr %16, align 4
  %59 = fmul float %57, %58
  %60 = load float, ptr %9, align 4
  %61 = fmul float %59, %60
  %62 = load float, ptr %6, align 4
  %63 = fmul float %61, %62
  %64 = fneg float %63
  %65 = call float @llvm.fmuladd.f32(float %55, float %56, float %64)
  %66 = load float, ptr %15, align 4
  %67 = load float, ptr %8, align 4
  %68 = fmul float %66, %67
  %69 = load float, ptr %13, align 4
  %70 = fmul float %68, %69
  %71 = load float, ptr %6, align 4
  %72 = fneg float %70
  %73 = call float @llvm.fmuladd.f32(float %72, float %71, float %65)
  %74 = load float, ptr %7, align 4
  %75 = load float, ptr %16, align 4
  %76 = fmul float %74, %75
  %77 = load float, ptr %13, align 4
  %78 = fmul float %76, %77
  %79 = load float, ptr %6, align 4
  %80 = call float @llvm.fmuladd.f32(float %78, float %79, float %73)
  %81 = load float, ptr %11, align 4
  %82 = load float, ptr %8, align 4
  %83 = fmul float %81, %82
  %84 = load float, ptr %17, align 4
  %85 = fmul float %83, %84
  %86 = load float, ptr %6, align 4
  %87 = call float @llvm.fmuladd.f32(float %85, float %86, float %80)
  %88 = load float, ptr %7, align 4
  %89 = load float, ptr %12, align 4
  %90 = fmul float %88, %89
  %91 = load float, ptr %17, align 4
  %92 = fmul float %90, %91
  %93 = load float, ptr %6, align 4
  %94 = fneg float %92
  %95 = call float @llvm.fmuladd.f32(float %94, float %93, float %87)
  %96 = load float, ptr %15, align 4
  %97 = load float, ptr %12, align 4
  %98 = fmul float %96, %97
  %99 = load float, ptr %5, align 4
  %100 = fmul float %98, %99
  %101 = load float, ptr %10, align 4
  %102 = fneg float %100
  %103 = call float @llvm.fmuladd.f32(float %102, float %101, float %95)
  %104 = load float, ptr %11, align 4
  %105 = load float, ptr %16, align 4
  %106 = fmul float %104, %105
  %107 = load float, ptr %5, align 4
  %108 = fmul float %106, %107
  %109 = load float, ptr %10, align 4
  %110 = call float @llvm.fmuladd.f32(float %108, float %109, float %103)
  %111 = load float, ptr %15, align 4
  %112 = load float, ptr %4, align 4
  %113 = fmul float %111, %112
  %114 = load float, ptr %13, align 4
  %115 = fmul float %113, %114
  %116 = load float, ptr %10, align 4
  %117 = call float @llvm.fmuladd.f32(float %115, float %116, float %110)
  %118 = load float, ptr %3, align 4
  %119 = load float, ptr %16, align 4
  %120 = fmul float %118, %119
  %121 = load float, ptr %13, align 4
  %122 = fmul float %120, %121
  %123 = load float, ptr %10, align 4
  %124 = fneg float %122
  %125 = call float @llvm.fmuladd.f32(float %124, float %123, float %117)
  %126 = load float, ptr %11, align 4
  %127 = load float, ptr %4, align 4
  %128 = fmul float %126, %127
  %129 = load float, ptr %17, align 4
  %130 = fmul float %128, %129
  %131 = load float, ptr %10, align 4
  %132 = fneg float %130
  %133 = call float @llvm.fmuladd.f32(float %132, float %131, float %125)
  %134 = load float, ptr %3, align 4
  %135 = load float, ptr %12, align 4
  %136 = fmul float %134, %135
  %137 = load float, ptr %17, align 4
  %138 = fmul float %136, %137
  %139 = load float, ptr %10, align 4
  %140 = call float @llvm.fmuladd.f32(float %138, float %139, float %133)
  %141 = load float, ptr %15, align 4
  %142 = load float, ptr %8, align 4
  %143 = fmul float %141, %142
  %144 = load float, ptr %5, align 4
  %145 = fmul float %143, %144
  %146 = load float, ptr %14, align 4
  %147 = call float @llvm.fmuladd.f32(float %145, float %146, float %140)
  %148 = load float, ptr %7, align 4
  %149 = load float, ptr %16, align 4
  %150 = fmul float %148, %149
  %151 = load float, ptr %5, align 4
  %152 = fmul float %150, %151
  %153 = load float, ptr %14, align 4
  %154 = fneg float %152
  %155 = call float @llvm.fmuladd.f32(float %154, float %153, float %147)
  %156 = load float, ptr %15, align 4
  %157 = load float, ptr %4, align 4
  %158 = fmul float %156, %157
  %159 = load float, ptr %9, align 4
  %160 = fmul float %158, %159
  %161 = load float, ptr %14, align 4
  %162 = fneg float %160
  %163 = call float @llvm.fmuladd.f32(float %162, float %161, float %155)
  %164 = load float, ptr %3, align 4
  %165 = load float, ptr %16, align 4
  %166 = fmul float %164, %165
  %167 = load float, ptr %9, align 4
  %168 = fmul float %166, %167
  %169 = load float, ptr %14, align 4
  %170 = call float @llvm.fmuladd.f32(float %168, float %169, float %163)
  %171 = load float, ptr %7, align 4
  %172 = load float, ptr %4, align 4
  %173 = fmul float %171, %172
  %174 = load float, ptr %17, align 4
  %175 = fmul float %173, %174
  %176 = load float, ptr %14, align 4
  %177 = call float @llvm.fmuladd.f32(float %175, float %176, float %170)
  %178 = load float, ptr %3, align 4
  %179 = load float, ptr %8, align 4
  %180 = fmul float %178, %179
  %181 = load float, ptr %17, align 4
  %182 = fmul float %180, %181
  %183 = load float, ptr %14, align 4
  %184 = fneg float %182
  %185 = call float @llvm.fmuladd.f32(float %184, float %183, float %177)
  %186 = load float, ptr %11, align 4
  %187 = load float, ptr %8, align 4
  %188 = fmul float %186, %187
  %189 = load float, ptr %5, align 4
  %190 = fmul float %188, %189
  %191 = load float, ptr %18, align 4
  %192 = fneg float %190
  %193 = call float @llvm.fmuladd.f32(float %192, float %191, float %185)
  %194 = load float, ptr %7, align 4
  %195 = load float, ptr %12, align 4
  %196 = fmul float %194, %195
  %197 = load float, ptr %5, align 4
  %198 = fmul float %196, %197
  %199 = load float, ptr %18, align 4
  %200 = call float @llvm.fmuladd.f32(float %198, float %199, float %193)
  %201 = load float, ptr %11, align 4
  %202 = load float, ptr %4, align 4
  %203 = fmul float %201, %202
  %204 = load float, ptr %9, align 4
  %205 = fmul float %203, %204
  %206 = load float, ptr %18, align 4
  %207 = call float @llvm.fmuladd.f32(float %205, float %206, float %200)
  %208 = load float, ptr %3, align 4
  %209 = load float, ptr %12, align 4
  %210 = fmul float %208, %209
  %211 = load float, ptr %9, align 4
  %212 = fmul float %210, %211
  %213 = load float, ptr %18, align 4
  %214 = fneg float %212
  %215 = call float @llvm.fmuladd.f32(float %214, float %213, float %207)
  %216 = load float, ptr %7, align 4
  %217 = load float, ptr %4, align 4
  %218 = fmul float %216, %217
  %219 = load float, ptr %13, align 4
  %220 = fmul float %218, %219
  %221 = load float, ptr %18, align 4
  %222 = fneg float %220
  %223 = call float @llvm.fmuladd.f32(float %222, float %221, float %215)
  %224 = load float, ptr %3, align 4
  %225 = load float, ptr %8, align 4
  %226 = fmul float %224, %225
  %227 = load float, ptr %13, align 4
  %228 = fmul float %226, %227
  %229 = load float, ptr %18, align 4
  %230 = call float @llvm.fmuladd.f32(float %228, float %229, float %223)
  store float %230, ptr %2, align 4
  %231 = load float, ptr %2, align 4
  call void @llvm.lifetime.end.p0(i64 4, ptr %18) #16
  call void @llvm.lifetime.end.p0(i64 4, ptr %17) #16
  call void @llvm.lifetime.end.p0(i64 4, ptr %16) #16
  call void @llvm.lifetime.end.p0(i64 4, ptr %15) #16
  call void @llvm.lifetime.end.p0(i64 4, ptr %14) #16
  call void @llvm.lifetime.end.p0(i64 4, ptr %13) #16
  call void @llvm.lifetime.end.p0(i64 4, ptr %12) #16
  call void @llvm.lifetime.end.p0(i64 4, ptr %11) #16
  call void @llvm.lifetime.end.p0(i64 4, ptr %10) #16
  call void @llvm.lifetime.end.p0(i64 4, ptr %9) #16
  call void @llvm.lifetime.end.p0(i64 4, ptr %8) #16
  call void @llvm.lifetime.end.p0(i64 4, ptr %7) #16
  call void @llvm.lifetime.end.p0(i64 4, ptr %6) #16
  call void @llvm.lifetime.end.p0(i64 4, ptr %5) #16
  call void @llvm.lifetime.end.p0(i64 4, ptr %4) #16
  call void @llvm.lifetime.end.p0(i64 4, ptr %3) #16
  call void @llvm.lifetime.end.p0(i64 4, ptr %2) #16
  ret float %231
}