; Function Attrs: mustprogress nofree norecurse nosync nounwind willreturn memory(argmem: read) uwtable
define float @MatrixDeterminant(ptr noundef readonly byval(%struct.Matrix) align 8 captures(none) %0) local_unnamed_addr #21 {
  %2 = load float, ptr %0, align 8
  %3 = getelementptr inbounds nuw i8, ptr %0, i64 16
  %4 = load float, ptr %3, align 8
  %5 = getelementptr inbounds nuw i8, ptr %0, i64 32
  %6 = load float, ptr %5, align 8
  %7 = getelementptr inbounds nuw i8, ptr %0, i64 48
  %8 = load float, ptr %7, align 8
  %9 = getelementptr inbounds nuw i8, ptr %0, i64 4
  %10 = load float, ptr %9, align 4
  %11 = getelementptr inbounds nuw i8, ptr %0, i64 20
  %12 = load float, ptr %11, align 4
  %13 = getelementptr inbounds nuw i8, ptr %0, i64 36
  %14 = load float, ptr %13, align 4
  %15 = getelementptr inbounds nuw i8, ptr %0, i64 52
  %16 = load float, ptr %15, align 4
  %17 = getelementptr inbounds nuw i8, ptr %0, i64 8
  %18 = load float, ptr %17, align 8
  %19 = getelementptr inbounds nuw i8, ptr %0, i64 24
  %20 = load float, ptr %19, align 8
  %21 = getelementptr inbounds nuw i8, ptr %0, i64 40
  %22 = load float, ptr %21, align 8
  %23 = getelementptr inbounds nuw i8, ptr %0, i64 56
  %24 = load float, ptr %23, align 8
  %25 = getelementptr inbounds nuw i8, ptr %0, i64 12
  %26 = load float, ptr %25, align 4
  %27 = getelementptr inbounds nuw i8, ptr %0, i64 28
  %28 = load float, ptr %27, align 4
  %29 = getelementptr inbounds nuw i8, ptr %0, i64 44
  %30 = load float, ptr %29, align 4
  %31 = getelementptr inbounds nuw i8, ptr %0, i64 60
  %32 = load float, ptr %31, align 4
  %33 = fmul float %20, %26
  %34 = fmul float %14, %33
  %35 = fmul float %18, %28
  %36 = fmul float %14, %35
  %37 = fneg float %8
  %38 = fmul float %36, %37
  %39 = tail call float @llvm.fmuladd.f32(float %34, float %8, float %38)
  %40 = fmul float %12, %26
  %41 = fneg float %22
  %42 = fmul float %40, %41
  %43 = tail call float @llvm.fmuladd.f32(float %42, float %8, float %39)
  %44 = fmul float %10, %28
  %45 = fmul float %22, %44
  %46 = tail call float @llvm.fmuladd.f32(float %45, float %8, float %43)
  %47 = fmul float %12, %18
  %48 = fmul float %47, %30
  %49 = tail call float @llvm.fmuladd.f32(float %48, float %8, float %46)
  %50 = fmul float %10, %20
  %51 = fneg float %30
  %52 = fmul float %50, %51
  %53 = tail call float @llvm.fmuladd.f32(float %52, float %8, float %49)
  %54 = fneg float %6
  %55 = fmul float %33, %54
  %56 = tail call float @llvm.fmuladd.f32(float %55, float %16, float %53)
  %57 = fmul float %6, %35
  %58 = tail call float @llvm.fmuladd.f32(float %57, float %16, float %56)
  %59 = fmul float %4, %26
  %60 = fmul float %22, %59
  %61 = tail call float @llvm.fmuladd.f32(float %60, float %16, float %58)
  %62 = fmul float %2, %28
  %63 = fmul float %62, %41
  %64 = tail call float @llvm.fmuladd.f32(float %63, float %16, float %61)
  %65 = fmul float %4, %18
  %66 = fmul float %65, %51
  %67 = tail call float @llvm.fmuladd.f32(float %66, float %16, float %64)
  %68 = fmul float %2, %20
  %69 = fmul float %68, %30
  %70 = tail call float @llvm.fmuladd.f32(float %69, float %16, float %67)
  %71 = fmul float %6, %40
  %72 = tail call float @llvm.fmuladd.f32(float %71, float %24, float %70)
  %73 = fmul float %44, %54
  %74 = tail call float @llvm.fmuladd.f32(float %73, float %24, float %72)
  %75 = fneg float %14
  %76 = fmul float %59, %75
  %77 = tail call float @llvm.fmuladd.f32(float %76, float %24, float %74)
  %78 = fmul float %14, %62
  %79 = tail call float @llvm.fmuladd.f32(float %78, float %24, float %77)
  %80 = fmul float %4, %10
  %81 = fmul float %80, %30
  %82 = tail call float @llvm.fmuladd.f32(float %81, float %24, float %79)
  %83 = fmul float %2, %12
  %84 = fmul float %83, %51
  %85 = tail call float @llvm.fmuladd.f32(float %84, float %24, float %82)
  %86 = fmul float %47, %54
  %87 = tail call float @llvm.fmuladd.f32(float %86, float %32, float %85)
  %88 = fmul float %6, %50
  %89 = tail call float @llvm.fmuladd.f32(float %88, float %32, float %87)
  %90 = fmul float %14, %65
  %91 = tail call float @llvm.fmuladd.f32(float %90, float %32, float %89)
  %92 = fmul float %68, %75
  %93 = tail call float @llvm.fmuladd.f32(float %92, float %32, float %91)
  %94 = fmul float %80, %41
  %95 = tail call float @llvm.fmuladd.f32(float %94, float %32, float %93)
  %96 = fmul float %83, %22
  %97 = tail call float @llvm.fmuladd.f32(float %96, float %32, float %95)
  ret float %97
}